; ModuleID = '21/137.c'
source_filename = "21/137.c"
target datalayout = "e-m:e-p270:32:32-p271:32:32-p272:64:64-i64:64-f80:128-n8:16:32:64-S128"
target triple = "x86_64-pc-linux-gnu"

@.str = private unnamed_addr constant [3 x i8] c"%d\00", align 1
@.str.1 = private unnamed_addr constant [2 x i8] c",\00", align 1

; Function Attrs: noinline nounwind uwtable
define dso_local void @main() #0 {
  %1 = alloca i32, align 4
  %2 = alloca [321 x i32], align 16
  %3 = alloca [321 x i32], align 16
  %4 = alloca i32, align 4
  %5 = alloca i32, align 4
  %6 = alloca i32, align 4
  %7 = alloca i32, align 4
  %8 = alloca double, align 8
  %9 = alloca double, align 8
  %10 = alloca double, align 8
  store i32 0, i32* %4, align 4
  store double 0.000000e+00, double* %8, align 8
  store double 0.000000e+00, double* %9, align 8
  %11 = call i32 (i8*, ...) @__isoc99_scanf(i8* getelementptr inbounds ([3 x i8], [3 x i8]* @.str, i64 0, i64 0), i32* %1)
  store i32 0, i32* %5, align 4
  br label %12

12:                                               ; preds = %28, %0
  %13 = load i32, i32* %5, align 4
  %14 = load i32, i32* %1, align 4
  %15 = icmp slt i32 %13, %14
  br i1 %15, label %16, label %31

16:                                               ; preds = %12
  %17 = load i32, i32* %5, align 4
  %18 = sext i32 %17 to i64
  %19 = getelementptr inbounds [321 x i32], [321 x i32]* %2, i64 0, i64 %18
  %20 = call i32 (i8*, ...) @__isoc99_scanf(i8* getelementptr inbounds ([3 x i8], [3 x i8]* @.str, i64 0, i64 0), i32* %19)
  %21 = load i32, i32* %5, align 4
  %22 = sext i32 %21 to i64
  %23 = getelementptr inbounds [321 x i32], [321 x i32]* %2, i64 0, i64 %22
  %24 = load i32, i32* %23, align 4
  %25 = sitofp i32 %24 to double
  %26 = load double, double* %8, align 8
  %27 = fadd double %26, %25
  store double %27, double* %8, align 8
  br label %28

28:                                               ; preds = %16
  %29 = load i32, i32* %5, align 4
  %30 = add nsw i32 %29, 1
  store i32 %30, i32* %5, align 4
  br label %12

31:                                               ; preds = %12
  %32 = load double, double* %8, align 8
  %33 = load i32, i32* %1, align 4
  %34 = sitofp i32 %33 to double
  %35 = fdiv double %32, %34
  store double %35, double* %8, align 8
  store i32 0, i32* %5, align 4
  br label %36

36:                                               ; preds = %55, %31
  %37 = load i32, i32* %5, align 4
  %38 = load i32, i32* %1, align 4
  %39 = icmp slt i32 %37, %38
  br i1 %39, label %40, label %58

40:                                               ; preds = %36
  %41 = load double, double* %8, align 8
  %42 = load i32, i32* %5, align 4
  %43 = sext i32 %42 to i64
  %44 = getelementptr inbounds [321 x i32], [321 x i32]* %2, i64 0, i64 %43
  %45 = load i32, i32* %44, align 4
  %46 = sitofp i32 %45 to double
  %47 = fsub double %41, %46
  %48 = call double @llvm.fabs.f64(double %47)
  store double %48, double* %10, align 8
  %49 = load double, double* %10, align 8
  %50 = load double, double* %9, align 8
  %51 = fcmp ogt double %49, %50
  br i1 %51, label %52, label %54

52:                                               ; preds = %40
  %53 = load double, double* %10, align 8
  store double %53, double* %9, align 8
  br label %54

54:                                               ; preds = %52, %40
  br label %55

55:                                               ; preds = %54
  %56 = load i32, i32* %5, align 4
  %57 = add nsw i32 %56, 1
  store i32 %57, i32* %5, align 4
  br label %36

58:                                               ; preds = %36
  store i32 0, i32* %5, align 4
  br label %59

59:                                               ; preds = %87, %58
  %60 = load i32, i32* %5, align 4
  %61 = load i32, i32* %1, align 4
  %62 = icmp slt i32 %60, %61
  br i1 %62, label %63, label %90

63:                                               ; preds = %59
  %64 = load double, double* %8, align 8
  %65 = load i32, i32* %5, align 4
  %66 = sext i32 %65 to i64
  %67 = getelementptr inbounds [321 x i32], [321 x i32]* %2, i64 0, i64 %66
  %68 = load i32, i32* %67, align 4
  %69 = sitofp i32 %68 to double
  %70 = fsub double %64, %69
  %71 = call double @llvm.fabs.f64(double %70)
  store double %71, double* %10, align 8
  %72 = load double, double* %10, align 8
  %73 = load double, double* %9, align 8
  %74 = fsub double %72, %73
  %75 = call double @llvm.fabs.f64(double %74)
  %76 = fcmp olt double %75, 0x3EB0C6F7A0B5ED8D
  br i1 %76, label %77, label %86

77:                                               ; preds = %63
  %78 = load i32, i32* %5, align 4
  %79 = sext i32 %78 to i64
  %80 = getelementptr inbounds [321 x i32], [321 x i32]* %2, i64 0, i64 %79
  %81 = load i32, i32* %80, align 4
  %82 = load i32, i32* %4, align 4
  %83 = add nsw i32 %82, 1
  store i32 %83, i32* %4, align 4
  %84 = sext i32 %82 to i64
  %85 = getelementptr inbounds [321 x i32], [321 x i32]* %3, i64 0, i64 %84
  store i32 %81, i32* %85, align 4
  br label %86

86:                                               ; preds = %77, %63
  br label %87

87:                                               ; preds = %86
  %88 = load i32, i32* %5, align 4
  %89 = add nsw i32 %88, 1
  store i32 %89, i32* %5, align 4
  br label %59

90:                                               ; preds = %59
  store i32 0, i32* %5, align 4
  br label %91

91:                                               ; preds = %135, %90
  %92 = load i32, i32* %5, align 4
  %93 = load i32, i32* %4, align 4
  %94 = icmp slt i32 %92, %93
  br i1 %94, label %95, label %138

95:                                               ; preds = %91
  store i32 0, i32* %6, align 4
  br label %96

96:                                               ; preds = %131, %95
  %97 = load i32, i32* %6, align 4
  %98 = load i32, i32* %4, align 4
  %99 = sub nsw i32 %98, 1
  %100 = icmp slt i32 %97, %99
  br i1 %100, label %101, label %134

101:                                              ; preds = %96
  %102 = load i32, i32* %6, align 4
  %103 = sext i32 %102 to i64
  %104 = getelementptr inbounds [321 x i32], [321 x i32]* %3, i64 0, i64 %103
  %105 = load i32, i32* %104, align 4
  %106 = load i32, i32* %6, align 4
  %107 = add nsw i32 %106, 1
  %108 = sext i32 %107 to i64
  %109 = getelementptr inbounds [321 x i32], [321 x i32]* %3, i64 0, i64 %108
  %110 = load i32, i32* %109, align 4
  %111 = icmp sgt i32 %105, %110
  br i1 %111, label %112, label %130

112:                                              ; preds = %101
  %113 = load i32, i32* %6, align 4
  %114 = sext i32 %113 to i64
  %115 = getelementptr inbounds [321 x i32], [321 x i32]* %3, i64 0, i64 %114
  %116 = load i32, i32* %115, align 4
  store i32 %116, i32* %7, align 4
  %117 = load i32, i32* %6, align 4
  %118 = add nsw i32 %117, 1
  %119 = sext i32 %118 to i64
  %120 = getelementptr inbounds [321 x i32], [321 x i32]* %3, i64 0, i64 %119
  %121 = load i32, i32* %120, align 4
  %122 = load i32, i32* %6, align 4
  %123 = sext i32 %122 to i64
  %124 = getelementptr inbounds [321 x i32], [321 x i32]* %3, i64 0, i64 %123
  store i32 %121, i32* %124, align 4
  %125 = load i32, i32* %7, align 4
  %126 = load i32, i32* %6, align 4
  %127 = add nsw i32 %126, 1
  %128 = sext i32 %127 to i64
  %129 = getelementptr inbounds [321 x i32], [321 x i32]* %3, i64 0, i64 %128
  store i32 %125, i32* %129, align 4
  br label %130

130:                                              ; preds = %112, %101
  br label %131

131:                                              ; preds = %130
  %132 = load i32, i32* %6, align 4
  %133 = add nsw i32 %132, 1
  store i32 %133, i32* %6, align 4
  br label %96

134:                                              ; preds = %96
  br label %135

135:                                              ; preds = %134
  %136 = load i32, i32* %5, align 4
  %137 = add nsw i32 %136, 1
  store i32 %137, i32* %5, align 4
  br label %91

138:                                              ; preds = %91
  store i32 0, i32* %5, align 4
  br label %139

139:                                              ; preds = %156, %138
  %140 = load i32, i32* %5, align 4
  %141 = load i32, i32* %4, align 4
  %142 = icmp slt i32 %140, %141
  br i1 %142, label %143, label %159

143:                                              ; preds = %139
  %144 = load i32, i32* %5, align 4
  %145 = sext i32 %144 to i64
  %146 = getelementptr inbounds [321 x i32], [321 x i32]* %3, i64 0, i64 %145
  %147 = load i32, i32* %146, align 4
  %148 = call i32 (i8*, ...) @printf(i8* getelementptr inbounds ([3 x i8], [3 x i8]* @.str, i64 0, i64 0), i32 %147)
  %149 = load i32, i32* %5, align 4
  %150 = load i32, i32* %4, align 4
  %151 = sub nsw i32 %150, 1
  %152 = icmp slt i32 %149, %151
  br i1 %152, label %153, label %155

153:                                              ; preds = %143
  %154 = call i32 (i8*, ...) @printf(i8* getelementptr inbounds ([2 x i8], [2 x i8]* @.str.1, i64 0, i64 0))
  br label %155

155:                                              ; preds = %153, %143
  br label %156

156:                                              ; preds = %155
  %157 = load i32, i32* %5, align 4
  %158 = add nsw i32 %157, 1
  store i32 %158, i32* %5, align 4
  br label %139

159:                                              ; preds = %139
  ret void
}

declare dso_local i32 @__isoc99_scanf(i8*, ...) #1

; Function Attrs: nounwind readnone speculatable willreturn
declare double @llvm.fabs.f64(double) #2

declare dso_local i32 @printf(i8*, ...) #1


!llvm.module.flags = !{!0}
!llvm.ident = !{!1}

!0 = !{i32 1, !"wchar_size", i32 4}
!1 = !{!"clang version 10.0.0-4ubuntu1 "}
